target datalayout = "e-m:e-p270:32:32-p271:32:32-p272:64:64-i64:64-i128:128-f80:128-n8:16:32:64-S128"
target triple = "x86_64-pc-linux-gnu"

@.str = private unnamed_addr constant [10 x i8] c"no-action\00", align 1
@.str.1 = private unnamed_addr constant [4 x i8] c"now\00", align 1
@.str.2 = private unnamed_addr constant [6 x i8] c"queue\00", align 1
@.str.3 = private unnamed_addr constant [17 x i8] c"return \22unknown\22\00", align 1
@.str.4 = private unnamed_addr constant [143 x i8] c"generated/home/dtcxzyw/WorkSpace/Projects/compilers/llvm-opt-benchmark/bench/grpc/grpc/src/core/ext/transport/chttp2/transport/flow_control.cc\00", align 1

; Function Attrs: mustprogress uwtable
define noundef ptr @_ZN9grpc_core6chttp217FlowControlAction13UrgencyStringENS1_7UrgencyE(i8 noundef zeroext %0) #4 align 2 {
  %2 = alloca ptr, align 8
  %3 = alloca i8, align 1
  store i8 %0, ptr %3, align 1, !tbaa !3
  %4 = load i8, ptr %3, align 1, !tbaa !3
  switch i8 %4, label %8 [
    i8 0, label %5
    i8 1, label %6
    i8 2, label %7
  ]

5:                                                ; preds = %1
  store ptr @.str, ptr %2, align 8
  br label %14

6:                                                ; preds = %1
  store ptr @.str.1, ptr %2, align 8
  br label %14

7:                                                ; preds = %1
  store ptr @.str.2, ptr %2, align 8
  br label %14

8:                                                ; preds = %1
  br label %9

9:                                                ; preds = %8
  call void @gpr_unreachable_code(ptr noundef @.str.3, ptr noundef @.str.4, i32 noundef 62) #21
  unreachable

10:                                               ; No predecessors!
  br label %11

11:                                               ; preds = %10
  br label %12

12:                                               ; preds = %11
  call void @gpr_unreachable_code(ptr noundef @.str.3, ptr noundef @.str.4, i32 noundef 64) #21
  unreachable

13:                                               ; No predecessors!
  unreachable

14:                                               ; preds = %7, %6, %5
  %15 = load ptr, ptr %2, align 8
  ret ptr %15
}