; Function Attrs: mustprogress uwtable
define noundef nonnull ptr @_ZN9grpc_core6chttp217FlowControlAction13UrgencyStringENS1_7UrgencyE(i8 noundef zeroext %0) local_unnamed_addr #3 align 2 {
  %2 = icmp ult i8 %0, 3
  br i1 %2, label %switch.lookup, label %3

3:                                                ; preds = %1
  tail call void @gpr_unreachable_code(ptr noundef nonnull @.str.3, ptr noundef nonnull @.str.4, i32 noundef 62) #27
  unreachable

switch.lookup:                                    ; preds = %1
  %4 = zext nneg i8 %0 to i64
  %switch.gep = getelementptr inbounds nuw [3 x ptr], ptr @switch.table._ZNK9grpc_core6chttp217FlowControlAction11DebugStringB5cxx11Ev.4, i64 0, i64 %4
  %switch.load = load ptr, ptr %switch.gep, align 8
  ret ptr %switch.load
}